; Function Attrs: mustprogress uwtable
define noundef ptr @uprv_decNumberTrim_77(ptr noundef returned %0) local_unnamed_addr #3 {
  %2 = alloca i32, align 4
  %3 = alloca %struct.decContext, align 4
  call void @llvm.lifetime.start.p0(i64 4, ptr nonnull %2) #16
  call void @llvm.lifetime.start.p0(i64 28, ptr nonnull %3) #16
  %4 = call ptr @uprv_decContextDefault_77(ptr noundef nonnull %3, i32 noundef 0)
  %5 = call fastcc noundef ptr @_ZL7decTrimP9decNumberP10decContexthhPi(ptr noundef %0, ptr noundef nonnull %3, i8 noundef zeroext 0, i8 noundef zeroext 1, ptr noundef %2)
  call void @llvm.lifetime.end.p0(i64 28, ptr nonnull %3) #16
  call void @llvm.lifetime.end.p0(i64 4, ptr nonnull %2) #16
  ret ptr %0
}